; Function Attrs: mustprogress nounwind uwtable
define dso_local void @_ZN5clang8comments13CommandTraits22registerCommentOptionsERKNS_14CommentOptionsE(ptr noundef nonnull align 8 dereferenceable(64) %0, ptr nocapture noundef nonnull readonly align 8 dereferenceable(25) %1) local_unnamed_addr #1 align 2 {
  %3 = load ptr, ptr %1, align 8
  %4 = getelementptr inbounds nuw i8, ptr %1, i64 8
  %5 = load ptr, ptr %4, align 8
  %.not7 = icmp eq ptr %3, %5
  br i1 %.not7, label %._crit_edge, label %.lr.ph

.lr.ph:                                           ; preds = %2, %.lr.ph
  %.sroa.04.08 = phi ptr [ %12, %.lr.ph ], [ %3, %2 ]
  %6 = tail call noundef ptr @_ZNKSt7__cxx1112basic_stringIcSt11char_traitsIcESaIcEE4dataEv(ptr noundef nonnull align 8 dereferenceable(32) %.sroa.04.08) #13
  %7 = tail call noundef i64 @_ZNKSt7__cxx1112basic_stringIcSt11char_traitsIcESaIcEE6lengthEv(ptr noundef nonnull align 8 dereferenceable(32) %.sroa.04.08) #13
  %8 = tail call noundef ptr @_ZN5clang8comments13CommandTraits25createCommandInfoWithNameEN4llvm9StringRefE(ptr noundef nonnull align 8 dereferenceable(64) %0, ptr readonly %6, i64 %7)
  %9 = getelementptr inbounds nuw i8, ptr %8, i64 16
  %10 = load i64, ptr %9, align 8
  %11 = or i64 %10, 33554432
  store i64 %11, ptr %9, align 8
  %12 = getelementptr inbounds i8, ptr %.sroa.04.08, i64 32
  %.not = icmp eq ptr %12, %5
  br i1 %.not, label %._crit_edge, label %.lr.ph, !llvm.loop !4

._crit_edge:                                      ; preds = %.lr.ph, %2
  ret void
}